target datalayout = "e-m:e-p270:32:32-p271:32:32-p272:64:64-i64:64-i128:128-f80:128-n8:16:32:64-S128"
target triple = "x86_64-pc-linux-gnu"

%struct.ItemPointerData = type { %struct.BlockIdData, i16 }
%struct.BlockIdData = type { i16, i16 }
%struct.ScanKeyData = type { i32, i16, i16, i32, i32, %struct.FmgrInfo, i64 }
%struct.FmgrInfo = type { ptr, i32, i16, i8, i8, i8, ptr, ptr, ptr }
%struct.BTArrayKeyInfo = type { i32, i32, i32, ptr }
%struct.IndexScanDescData = type { ptr, ptr, ptr, i32, i32, ptr, ptr, i8, i8, i8, i8, i8, ptr, ptr, ptr, ptr, ptr, %struct.ItemPointerData, i8, ptr, i8, ptr, ptr, i8, ptr }
%struct.BTScanOpaqueData = type { i8, i32, ptr, i32, i8, i8, i8, ptr, ptr, ptr, ptr, i32, ptr, ptr, i32, %struct.BTScanPosData, %struct.BTScanPosData }
%struct.BTScanPosData = type { i32, i32, i32, i32, i64, i32, i32, i8, i8, i32, i32, i32, [1358 x %struct.BTScanPosItem] }
%struct.BTScanPosItem = type { %struct.ItemPointerData, i16, i16 }

; Function Attrs: nounwind uwtable
define internal void @_bt_rewind_nonrequired_arrays(ptr noundef %0, i32 noundef %1) #0 {
  %3 = alloca ptr, align 8
  %4 = alloca i32, align 4
  %5 = alloca ptr, align 8
  %6 = alloca i32, align 4
  %7 = alloca i32, align 4
  %8 = alloca i32, align 4
  %9 = alloca ptr, align 8
  %10 = alloca ptr, align 8
  %11 = alloca i32, align 4
  store ptr %0, ptr %3, align 8
  store i32 %1, ptr %4, align 4
  call void @llvm.lifetime.start.p0(i64 8, ptr %5) #8
  %12 = load ptr, ptr %3, align 8
  %13 = getelementptr inbounds nuw %struct.IndexScanDescData, ptr %12, i32 0, i32 12
  %14 = load ptr, ptr %13, align 8
  store ptr %14, ptr %5, align 8
  call void @llvm.lifetime.start.p0(i64 4, ptr %6) #8
  store i32 0, ptr %6, align 4
  call void @llvm.lifetime.start.p0(i64 4, ptr %7) #8
  store i32 0, ptr %7, align 4
  br label %15

15:                                               ; preds = %87, %2
  %16 = load i32, ptr %7, align 4
  %17 = load ptr, ptr %5, align 8
  %18 = getelementptr inbounds nuw %struct.BTScanOpaqueData, ptr %17, i32 0, i32 1
  %19 = load i32, ptr %18, align 4
  %20 = icmp slt i32 %16, %19
  br i1 %20, label %22, label %21

21:                                               ; preds = %15
  store i32 2, ptr %8, align 4
  call void @llvm.lifetime.end.p0(i64 4, ptr %7) #8
  br label %90

22:                                               ; preds = %15
  call void @llvm.lifetime.start.p0(i64 8, ptr %9) #8
  %23 = load ptr, ptr %5, align 8
  %24 = getelementptr inbounds nuw %struct.BTScanOpaqueData, ptr %23, i32 0, i32 2
  %25 = load ptr, ptr %24, align 8
  %26 = load i32, ptr %7, align 4
  %27 = sext i32 %26 to i64
  %28 = getelementptr inbounds %struct.ScanKeyData, ptr %25, i64 %27
  store ptr %28, ptr %9, align 8
  call void @llvm.lifetime.start.p0(i64 8, ptr %10) #8
  store ptr null, ptr %10, align 8
  call void @llvm.lifetime.start.p0(i64 4, ptr %11) #8
  %29 = load ptr, ptr %9, align 8
  %30 = getelementptr inbounds nuw %struct.ScanKeyData, ptr %29, i32 0, i32 0
  %31 = load i32, ptr %30, align 8
  %32 = and i32 %31, 32
  %33 = icmp ne i32 %32, 0
  br i1 %33, label %34, label %40

34:                                               ; preds = %22
  %35 = load ptr, ptr %9, align 8
  %36 = getelementptr inbounds nuw %struct.ScanKeyData, ptr %35, i32 0, i32 2
  %37 = load i16, ptr %36, align 2
  %38 = zext i16 %37 to i32
  %39 = icmp ne i32 %38, 3
  br i1 %39, label %40, label %41

40:                                               ; preds = %34, %22
  store i32 4, ptr %8, align 4
  br label %84

41:                                               ; preds = %34
  %42 = load ptr, ptr %5, align 8
  %43 = getelementptr inbounds nuw %struct.BTScanOpaqueData, ptr %42, i32 0, i32 7
  %44 = load ptr, ptr %43, align 8
  %45 = load i32, ptr %6, align 4
  %46 = add i32 %45, 1
  store i32 %46, ptr %6, align 4
  %47 = sext i32 %45 to i64
  %48 = getelementptr inbounds %struct.BTArrayKeyInfo, ptr %44, i64 %47
  store ptr %48, ptr %10, align 8
  %49 = load ptr, ptr %9, align 8
  %50 = getelementptr inbounds nuw %struct.ScanKeyData, ptr %49, i32 0, i32 0
  %51 = load i32, ptr %50, align 8
  %52 = and i32 %51, 196608
  %53 = icmp ne i32 %52, 0
  br i1 %53, label %54, label %55

54:                                               ; preds = %41
  store i32 4, ptr %8, align 4
  br label %84

55:                                               ; preds = %41
  %56 = load i32, ptr %4, align 4
  %57 = icmp eq i32 %56, 1
  br i1 %57, label %58, label %59

58:                                               ; preds = %55
  store i32 0, ptr %11, align 4
  br label %64

59:                                               ; preds = %55
  %60 = load ptr, ptr %10, align 8
  %61 = getelementptr inbounds nuw %struct.BTArrayKeyInfo, ptr %60, i32 0, i32 2
  %62 = load i32, ptr %61, align 8
  %63 = sub i32 %62, 1
  store i32 %63, ptr %11, align 4
  br label %64

64:                                               ; preds = %59, %58
  %65 = load ptr, ptr %10, align 8
  %66 = getelementptr inbounds nuw %struct.BTArrayKeyInfo, ptr %65, i32 0, i32 1
  %67 = load i32, ptr %66, align 4
  %68 = load i32, ptr %11, align 4
  %69 = icmp ne i32 %67, %68
  br i1 %69, label %70, label %83

70:                                               ; preds = %64
  %71 = load i32, ptr %11, align 4
  %72 = load ptr, ptr %10, align 8
  %73 = getelementptr inbounds nuw %struct.BTArrayKeyInfo, ptr %72, i32 0, i32 1
  store i32 %71, ptr %73, align 4
  %74 = load ptr, ptr %10, align 8
  %75 = getelementptr inbounds nuw %struct.BTArrayKeyInfo, ptr %74, i32 0, i32 3
  %76 = load ptr, ptr %75, align 8
  %77 = load i32, ptr %11, align 4
  %78 = sext i32 %77 to i64
  %79 = getelementptr inbounds i64, ptr %76, i64 %78
  %80 = load i64, ptr %79, align 8
  %81 = load ptr, ptr %9, align 8
  %82 = getelementptr inbounds nuw %struct.ScanKeyData, ptr %81, i32 0, i32 6
  store i64 %80, ptr %82, align 8
  br label %83

83:                                               ; preds = %70, %64
  store i32 0, ptr %8, align 4
  br label %84

84:                                               ; preds = %83, %54, %40
  call void @llvm.lifetime.end.p0(i64 4, ptr %11) #8
  call void @llvm.lifetime.end.p0(i64 8, ptr %10) #8
  call void @llvm.lifetime.end.p0(i64 8, ptr %9) #8
  %85 = load i32, ptr %8, align 4
  switch i32 %85, label %91 [
    i32 0, label %86
    i32 4, label %87
  ]

86:                                               ; preds = %84
  br label %87

87:                                               ; preds = %86, %84
  %88 = load i32, ptr %7, align 4
  %89 = add i32 %88, 1
  store i32 %89, ptr %7, align 4
  br label %15, !llvm.loop !24

90:                                               ; preds = %21
  call void @llvm.lifetime.end.p0(i64 4, ptr %6) #8
  call void @llvm.lifetime.end.p0(i64 8, ptr %5) #8
  ret void

91:                                               ; preds = %84
  unreachable
}