; Function Attrs: nofree norecurse nosync nounwind memory(readwrite, inaccessiblemem: none) uwtable
define internal fastcc void @_bt_rewind_nonrequired_arrays(ptr readonly captures(none) %.56.val, i32 noundef %0) unnamed_addr #5 {
  %2 = getelementptr inbounds nuw i8, ptr %.56.val, i64 4
  %3 = load i32, ptr %2, align 4
  %4 = icmp sgt i32 %3, 0
  br i1 %4, label %.lr.ph, label %._crit_edge

.lr.ph:                                           ; preds = %1
  %5 = getelementptr inbounds nuw i8, ptr %.56.val, i64 8
  %6 = getelementptr inbounds nuw i8, ptr %.56.val, i64 24
  %7 = icmp eq i32 %0, 1
  br i1 %7, label %.lr.ph.split.us, label %.lr.ph.split

.lr.ph.split.us:                                  ; preds = %.lr.ph, %30
  %8 = phi i32 [ %31, %30 ], [ %3, %.lr.ph ]
  %indvars.iv5 = phi i64 [ %indvars.iv.next6, %30 ], [ 0, %.lr.ph ]
  %.0192.us = phi i32 [ %.1.us, %30 ], [ 0, %.lr.ph ]
  %9 = load ptr, ptr %5, align 8
  %10 = getelementptr inbounds nuw %struct.ScanKeyData, ptr %9, i64 %indvars.iv5
  %11 = load i32, ptr %10, align 8
  %12 = and i32 %11, 32
  %.not.us = icmp eq i32 %12, 0
  br i1 %.not.us, label %30, label %13

13:                                               ; preds = %.lr.ph.split.us
  %14 = getelementptr inbounds nuw i8, ptr %10, i64 6
  %15 = load i16, ptr %14, align 2
  %.not21.us = icmp eq i16 %15, 3
  br i1 %.not21.us, label %16, label %30

16:                                               ; preds = %13
  %17 = load ptr, ptr %6, align 8
  %18 = add i32 %.0192.us, 1
  %19 = sext i32 %.0192.us to i64
  %20 = getelementptr inbounds %struct.BTArrayKeyInfo, ptr %17, i64 %19
  %21 = and i32 %11, 196608
  %.not22.us = icmp eq i32 %21, 0
  br i1 %.not22.us, label %22, label %30

22:                                               ; preds = %16
  %23 = getelementptr inbounds nuw i8, ptr %20, i64 4
  %24 = load i32, ptr %23, align 4
  %.not23.us = icmp eq i32 %24, 0
  br i1 %.not23.us, label %30, label %25

25:                                               ; preds = %22
  store i32 0, ptr %23, align 4
  %26 = getelementptr inbounds nuw i8, ptr %20, i64 16
  %27 = load ptr, ptr %26, align 8
  %28 = load i64, ptr %27, align 8
  %29 = getelementptr inbounds nuw i8, ptr %10, i64 64
  store i64 %28, ptr %29, align 8
  %.pre8 = load i32, ptr %2, align 4
  br label %30

30:                                               ; preds = %25, %22, %16, %13, %.lr.ph.split.us
  %31 = phi i32 [ %8, %13 ], [ %8, %.lr.ph.split.us ], [ %8, %16 ], [ %.pre8, %25 ], [ %8, %22 ]
  %.1.us = phi i32 [ %.0192.us, %13 ], [ %.0192.us, %.lr.ph.split.us ], [ %18, %16 ], [ %18, %25 ], [ %18, %22 ]
  %indvars.iv.next6 = add nuw nsw i64 %indvars.iv5, 1
  %32 = sext i32 %31 to i64
  %33 = icmp slt i64 %indvars.iv.next6, %32
  br i1 %33, label %.lr.ph.split.us, label %._crit_edge, !llvm.loop !25

._crit_edge:                                      ; preds = %61, %30, %1
  ret void

.lr.ph.split:                                     ; preds = %.lr.ph, %61
  %34 = phi i32 [ %62, %61 ], [ %3, %.lr.ph ]
  %indvars.iv = phi i64 [ %indvars.iv.next, %61 ], [ 0, %.lr.ph ]
  %.0192 = phi i32 [ %.1, %61 ], [ 0, %.lr.ph ]
  %35 = load ptr, ptr %5, align 8
  %36 = getelementptr inbounds nuw %struct.ScanKeyData, ptr %35, i64 %indvars.iv
  %37 = load i32, ptr %36, align 8
  %38 = and i32 %37, 32
  %.not = icmp eq i32 %38, 0
  br i1 %.not, label %61, label %39

39:                                               ; preds = %.lr.ph.split
  %40 = getelementptr inbounds nuw i8, ptr %36, i64 6
  %41 = load i16, ptr %40, align 2
  %.not21 = icmp eq i16 %41, 3
  br i1 %.not21, label %42, label %61

42:                                               ; preds = %39
  %43 = load ptr, ptr %6, align 8
  %44 = add i32 %.0192, 1
  %45 = sext i32 %.0192 to i64
  %46 = getelementptr inbounds %struct.BTArrayKeyInfo, ptr %43, i64 %45
  %47 = and i32 %37, 196608
  %.not22 = icmp eq i32 %47, 0
  br i1 %.not22, label %48, label %61

48:                                               ; preds = %42
  %49 = getelementptr inbounds nuw i8, ptr %46, i64 8
  %50 = load i32, ptr %49, align 8
  %51 = add i32 %50, -1
  %52 = getelementptr inbounds nuw i8, ptr %46, i64 4
  %53 = load i32, ptr %52, align 4
  %.not23 = icmp eq i32 %53, %51
  br i1 %.not23, label %61, label %54

54:                                               ; preds = %48
  store i32 %51, ptr %52, align 4
  %55 = getelementptr inbounds nuw i8, ptr %46, i64 16
  %56 = load ptr, ptr %55, align 8
  %57 = sext i32 %51 to i64
  %58 = getelementptr inbounds i64, ptr %56, i64 %57
  %59 = load i64, ptr %58, align 8
  %60 = getelementptr inbounds nuw i8, ptr %36, i64 64
  store i64 %59, ptr %60, align 8
  %.pre = load i32, ptr %2, align 4
  br label %61

61:                                               ; preds = %48, %54, %42, %.lr.ph.split, %39
  %62 = phi i32 [ %34, %39 ], [ %34, %.lr.ph.split ], [ %34, %42 ], [ %.pre, %54 ], [ %34, %48 ]
  %.1 = phi i32 [ %.0192, %39 ], [ %.0192, %.lr.ph.split ], [ %44, %42 ], [ %44, %54 ], [ %44, %48 ]
  %indvars.iv.next = add nuw nsw i64 %indvars.iv, 1
  %63 = sext i32 %62 to i64
  %64 = icmp slt i64 %indvars.iv.next, %63
  br i1 %64, label %.lr.ph.split, label %._crit_edge, !llvm.loop !25
}